; Function Attrs: mustprogress uwtable
define { i64, i8 } @_ZNK4LIEF3ELF12CorePrStatus3getENS1_9Registers3X86E(ptr noundef nonnull align 8 dereferenceable(80) %0, i32 noundef %1) local_unnamed_addr #3 align 2 {
  %3 = getelementptr inbounds i8, ptr %0, i64 48
  %4 = getelementptr inbounds i8, ptr %0, i64 76
  %5 = load i32, ptr %4, align 4
  %6 = getelementptr inbounds i8, ptr %0, i64 72
  %7 = load i32, ptr %6, align 8
  %8 = tail call { i64, i8 } @_ZN4LIEF3ELF12get_reg_implINS0_12CorePrStatus9Registers3X86EEEN2tl8expectedIm11lief_errorsEET_RKSt6vectorIhSaIhEENS0_6Header5CLASSENS0_4ARCHE(i32 noundef %1, ptr noundef nonnull align 8 dereferenceable(24) %3, i32 noundef %5, i32 noundef %7)
  ret { i64, i8 } %8
}